; Function Attrs: nounwind uwtable
define range(i32 -1, 1) i32 @H5RS_incr(ptr noundef captures(none) %0) local_unnamed_addr #0 {
  %2 = load i8, ptr @H5RS_init_g, align 1, !tbaa !3, !range !7, !noundef !8
  %3 = trunc nuw i8 %2 to i1
  %4 = load i8, ptr @H5_libterm_g, align 1, !range !7
  %5 = trunc nuw i8 %4 to i1
  %6 = select i1 %3, i1 true, i1 %5
  br i1 %6, label %7, label %.thread, !prof !9

.thread:                                          ; preds = %1
  store i8 1, ptr @H5RS_init_g, align 1, !tbaa !3
  br label %10

7:                                                ; preds = %1
  %8 = xor i1 %5, true
  %9 = select i1 %3, i1 true, i1 %8
  br i1 %9, label %10, label %44, !prof !10

10:                                               ; preds = %.thread, %7
  %11 = getelementptr inbounds nuw i8, ptr %0, i64 32
  %12 = load i8, ptr %11, align 8, !tbaa !26, !range !7, !noundef !8
  %13 = trunc nuw i8 %12 to i1
  br i1 %13, label %14, label %40

14:                                               ; preds = %10
  %15 = load ptr, ptr %0, align 8, !tbaa !20
  %.not.i = icmp eq ptr %15, null
  br i1 %.not.i, label %39, label %16

16:                                               ; preds = %14
  %17 = tail call i64 @strlen(ptr noundef nonnull readonly dereferenceable(1) %15) #12
  %18 = add i64 %17, 1
  br label %19

19:                                               ; preds = %19, %16
  %storemerge.i = phi i64 [ 256, %16 ], [ %21, %19 ]
  %20 = icmp ugt i64 %18, %storemerge.i
  %21 = shl i64 %storemerge.i, 1
  br i1 %20, label %19, label %22, !llvm.loop !13

22:                                               ; preds = %19
  %23 = getelementptr inbounds nuw i8, ptr %0, i64 24
  store i64 %storemerge.i, ptr %23, align 8, !tbaa !15
  %24 = tail call noalias ptr @H5FL_blk_malloc(ptr noundef nonnull @H5_str_buf_blk_free_list, i64 noundef %storemerge.i) #11
  store ptr %24, ptr %0, align 8, !tbaa !20
  %25 = icmp eq ptr %24, null
  br i1 %25, label %32, label %26

26:                                               ; preds = %22
  %.not36.i = icmp eq i64 %17, 0
  br i1 %.not36.i, label %28, label %27

27:                                               ; preds = %26
  tail call void @llvm.memcpy.p0.p0.i64(ptr nonnull align 1 %24, ptr nonnull readonly align 1 %15, i64 %17, i1 false)
  br label %28

28:                                               ; preds = %27, %26
  %29 = getelementptr inbounds nuw i8, ptr %24, i64 %17
  %30 = getelementptr inbounds nuw i8, ptr %0, i64 8
  store ptr %29, ptr %30, align 8, !tbaa !21
  store i8 0, ptr %29, align 1, !tbaa !22
  %31 = getelementptr inbounds nuw i8, ptr %0, i64 16
  store i64 %17, ptr %31, align 8, !tbaa !23
  br label %39

32:                                               ; preds = %22
  %33 = load i64, ptr @H5E_RS_g, align 8, !tbaa !11
  %34 = load i64, ptr @H5E_CANTALLOC_g, align 8, !tbaa !11
  %35 = tail call i32 (ptr, ptr, i32, i64, i64, ptr, ...) @H5E_printf_stack(ptr noundef nonnull @.str, ptr noundef nonnull @__func__.H5RS__xstrdup, i32 noundef 129, i64 noundef %33, i64 noundef %34, ptr noundef nonnull @.str.1) #11
  %36 = load i64, ptr @H5E_RS_g, align 8, !tbaa !11
  %37 = load i64, ptr @H5E_CANTCOPY_g, align 8, !tbaa !11
  %38 = tail call i32 (ptr, ptr, i32, i64, i64, ptr, ...) @H5E_printf_stack(ptr noundef nonnull @.str, ptr noundef nonnull @__func__.H5RS_incr, i32 noundef 608, i64 noundef %36, i64 noundef %37, ptr noundef nonnull @.str.2) #11
  br label %44

39:                                               ; preds = %28, %14
  store i8 0, ptr %11, align 8, !tbaa !26
  br label %40

40:                                               ; preds = %39, %10
  %41 = getelementptr inbounds nuw i8, ptr %0, i64 36
  %42 = load i32, ptr %41, align 4, !tbaa !24
  %43 = add i32 %42, 1
  store i32 %43, ptr %41, align 4, !tbaa !24
  br label %44

44:                                               ; preds = %32, %40, %7
  %.0 = phi i32 [ -1, %32 ], [ 0, %40 ], [ 0, %7 ]
  ret i32 %.0
}